; Function Attrs: nounwind sspstrong uwtable
define internal range(i64 1, 0) i64 @ast_node_last_lineno(ptr readnone captures(none) %0, i64 noundef %1) #0 {
  %3 = tail call ptr @rb_check_typeddata(i64 noundef %1, ptr noundef nonnull @rb_node_type) #11
  %4 = getelementptr inbounds nuw i8, ptr %3, i64 8
  %5 = load ptr, ptr %4, align 8, !tbaa !72
  %6 = getelementptr inbounds nuw i8, ptr %5, i64 16
  %7 = load i32, ptr %6, align 8, !tbaa !77
  %8 = sext i32 %7 to i64
  %9 = shl nsw i64 %8, 1
  %10 = or disjoint i64 %9, 1
  ret i64 %10
}